
shangO2.bin:     file format elf32-littlearm


Disassembly of section .init:

0000827c <_init>:
    827c:	e92d4008 	push	{r3, lr}
    8280:	eb000027 	bl	8324 <call_weak_fn>
    8284:	e8bd8008 	pop	{r3, pc}

Disassembly of section .plt:

00008288 <.plt>:
    8288:	e52de004 	push	{lr}		; (str lr, [sp, #-4]!)
    828c:	e59fe004 	ldr	lr, [pc, #4]	; 8298 <_init+0x1c>
    8290:	e08fe00e 	add	lr, pc, lr
    8294:	e5bef008 	ldr	pc, [lr, #8]!
    8298:	000084f0 	strdeq	r8, [r0], -r0
    829c:	e28fc600 	add	ip, pc, #0, 12
    82a0:	e28cca08 	add	ip, ip, #8, 20	; 0x8000
    82a4:	e5bcf4f0 	ldr	pc, [ip, #1264]!	; 0x4f0
    82a8:	e28fc600 	add	ip, pc, #0, 12
    82ac:	e28cca08 	add	ip, ip, #8, 20	; 0x8000
    82b0:	e5bcf4e8 	ldr	pc, [ip, #1256]!	; 0x4e8
    82b4:	e28fc600 	add	ip, pc, #0, 12
    82b8:	e28cca08 	add	ip, ip, #8, 20	; 0x8000
    82bc:	e5bcf4e0 	ldr	pc, [ip, #1248]!	; 0x4e0

Disassembly of section .text:

000082c0 <main>:
    82c0:	b580      	push	{r7, lr}
    82c2:	2201      	movs	r2, #1
    82c4:	4f07      	ldr	r7, [pc, #28]	; (82e4 <main+0x24>)
    82c6:	44bd      	add	sp, r7
    82c8:	a9ff      	add	r1, sp, #1020	; 0x3fc
    82ca:	abe6      	add	r3, sp, #920	; 0x398
    82cc:	313c      	adds	r1, #60	; 0x3c
    82ce:	c304      	stmia	r3!, {r2}
    82d0:	428b      	cmp	r3, r1
    82d2:	d1fc      	bne.n	82ce <main+0xe>
    82d4:	4668      	mov	r0, sp
    82d6:	2100      	movs	r1, #0
    82d8:	f000 f944 	bl	8564 <SolveGame>
    82dc:	2387      	movs	r3, #135	; 0x87
    82de:	00db      	lsls	r3, r3, #3
    82e0:	449d      	add	sp, r3
    82e2:	bd80      	pop	{r7, pc}
    82e4:	fffffbc8 			; <UNDEFINED> instruction: 0xfffffbc8

000082e8 <_start>:
    82e8:	e3a0b000 	mov	fp, #0
    82ec:	e3a0e000 	mov	lr, #0
    82f0:	e49d1004 	pop	{r1}		; (ldr r1, [sp], #4)
    82f4:	e1a0200d 	mov	r2, sp
    82f8:	e52d2004 	push	{r2}		; (str r2, [sp, #-4]!)
    82fc:	e52d0004 	push	{r0}		; (str r0, [sp, #-4]!)
    8300:	e59fc010 	ldr	ip, [pc, #16]	; 8318 <_start+0x30>
    8304:	e52dc004 	push	{ip}		; (str ip, [sp, #-4]!)
    8308:	e59f000c 	ldr	r0, [pc, #12]	; 831c <_start+0x34>
    830c:	e59f300c 	ldr	r3, [pc, #12]	; 8320 <_start+0x38>
    8310:	ebffffe1 	bl	829c <_init+0x20>
    8314:	ebffffe6 	bl	82b4 <_init+0x38>
    8318:	00008678 	andeq	r8, r0, r8, ror r6
    831c:	000082c1 	andeq	r8, r0, r1, asr #5
    8320:	00008614 	andeq	r8, r0, r4, lsl r6

00008324 <call_weak_fn>:
    8324:	e59f3014 	ldr	r3, [pc, #20]	; 8340 <call_weak_fn+0x1c>
    8328:	e59f2014 	ldr	r2, [pc, #20]	; 8344 <call_weak_fn+0x20>
    832c:	e08f3003 	add	r3, pc, r3
    8330:	e7932002 	ldr	r2, [r3, r2]
    8334:	e3520000 	cmp	r2, #0
    8338:	012fff1e 	bxeq	lr
    833c:	eaffffd9 	b	82a8 <_init+0x2c>
    8340:	00008454 	andeq	r8, r0, r4, asr r4
    8344:	00000018 	andeq	r0, r0, r8, lsl r0

00008348 <deregister_tm_clones>:
    8348:	e92d4008 	push	{r3, lr}
    834c:	e59f0020 	ldr	r0, [pc, #32]	; 8374 <deregister_tm_clones+0x2c>
    8350:	e59f3020 	ldr	r3, [pc, #32]	; 8378 <deregister_tm_clones+0x30>
    8354:	e0603003 	rsb	r3, r0, r3
    8358:	e3530006 	cmp	r3, #6
    835c:	98bd8008 	popls	{r3, pc}
    8360:	e59f3014 	ldr	r3, [pc, #20]	; 837c <deregister_tm_clones+0x34>
    8364:	e3530000 	cmp	r3, #0
    8368:	08bd8008 	popeq	{r3, pc}
    836c:	e12fff33 	blx	r3
    8370:	e8bd8008 	pop	{r3, pc}
    8374:	00010af4 	strdeq	r0, [r1], -r4
    8378:	00010af7 	strdeq	r0, [r1], -r7
    837c:	00000000 	andeq	r0, r0, r0

00008380 <register_tm_clones>:
    8380:	e92d4008 	push	{r3, lr}
    8384:	e59f0028 	ldr	r0, [pc, #40]	; 83b4 <register_tm_clones+0x34>
    8388:	e59f3028 	ldr	r3, [pc, #40]	; 83b8 <register_tm_clones+0x38>
    838c:	e0603003 	rsb	r3, r0, r3
    8390:	e1a03143 	asr	r3, r3, #2
    8394:	e0833fa3 	add	r3, r3, r3, lsr #31
    8398:	e1b010c3 	asrs	r1, r3, #1
    839c:	08bd8008 	popeq	{r3, pc}
    83a0:	e59f2014 	ldr	r2, [pc, #20]	; 83bc <register_tm_clones+0x3c>
    83a4:	e3520000 	cmp	r2, #0
    83a8:	08bd8008 	popeq	{r3, pc}
    83ac:	e12fff32 	blx	r2
    83b0:	e8bd8008 	pop	{r3, pc}
    83b4:	00010af4 	strdeq	r0, [r1], -r4
    83b8:	00010af4 	strdeq	r0, [r1], -r4
    83bc:	00000000 	andeq	r0, r0, r0

000083c0 <__do_global_dtors_aux>:
    83c0:	e92d4010 	push	{r4, lr}
    83c4:	e59f4018 	ldr	r4, [pc, #24]	; 83e4 <__do_global_dtors_aux+0x24>
    83c8:	e5d43000 	ldrb	r3, [r4]
    83cc:	e3530000 	cmp	r3, #0
    83d0:	18bd8010 	popne	{r4, pc}
    83d4:	ebffffdb 	bl	8348 <deregister_tm_clones>
    83d8:	e3a03001 	mov	r3, #1
    83dc:	e5c43000 	strb	r3, [r4]
    83e0:	e8bd8010 	pop	{r4, pc}
    83e4:	00010af4 	strdeq	r0, [r1], -r4

000083e8 <frame_dummy>:
    83e8:	e59f0024 	ldr	r0, [pc, #36]	; 8414 <frame_dummy+0x2c>
    83ec:	e92d4008 	push	{r3, lr}
    83f0:	e5903000 	ldr	r3, [r0]
    83f4:	e3530000 	cmp	r3, #0
    83f8:	0a000003 	beq	840c <frame_dummy+0x24>
    83fc:	e59f3014 	ldr	r3, [pc, #20]	; 8418 <frame_dummy+0x30>
    8400:	e3530000 	cmp	r3, #0
    8404:	0a000000 	beq	840c <frame_dummy+0x24>
    8408:	e12fff33 	blx	r3
    840c:	e8bd4008 	pop	{r3, lr}
    8410:	eaffffda 	b	8380 <register_tm_clones>
    8414:	0001069c 	muleq	r1, ip, r6
    8418:	00000000 	andeq	r0, r0, r0

0000841c <initGame>:
    841c:	b5f0      	push	{r4, r5, r6, r7, lr}
    841e:	27d2      	movs	r7, #210	; 0xd2
    8420:	2600      	movs	r6, #0
    8422:	00bf      	lsls	r7, r7, #2
    8424:	2300      	movs	r3, #0
    8426:	1985      	adds	r5, r0, r6
    8428:	198c      	adds	r4, r1, r6
    842a:	5cea      	ldrb	r2, [r5, r3]
    842c:	54e2      	strb	r2, [r4, r3]
    842e:	3301      	adds	r3, #1
    8430:	2b15      	cmp	r3, #21
    8432:	d1fa      	bne.n	842a <initGame+0xe>
    8434:	3615      	adds	r6, #21
    8436:	42be      	cmp	r6, r7
    8438:	d1f4      	bne.n	8424 <initGame+0x8>
    843a:	23d2      	movs	r3, #210	; 0xd2
    843c:	009b      	lsls	r3, r3, #2
    843e:	18c4      	adds	r4, r0, r3
    8440:	18ca      	adds	r2, r1, r3
    8442:	2314      	movs	r3, #20
    8444:	cc20      	ldmia	r4!, {r5}
    8446:	3b01      	subs	r3, #1
    8448:	c220      	stmia	r2!, {r5}
    844a:	2b00      	cmp	r3, #0
    844c:	d1fa      	bne.n	8444 <initGame+0x28>
    844e:	23e6      	movs	r3, #230	; 0xe6
    8450:	009b      	lsls	r3, r3, #2
    8452:	18c0      	adds	r0, r0, r3
    8454:	18ca      	adds	r2, r1, r3
    8456:	2328      	movs	r3, #40	; 0x28
    8458:	c802      	ldmia	r0!, {r1}
    845a:	3b01      	subs	r3, #1
    845c:	c202      	stmia	r2!, {r1}
    845e:	2b00      	cmp	r3, #0
    8460:	d1fa      	bne.n	8458 <initGame+0x3c>
    8462:	bdf0      	pop	{r4, r5, r6, r7, pc}

00008464 <my_strncmp>:
    8464:	b530      	push	{r4, r5, lr}
    8466:	2a00      	cmp	r2, #0
    8468:	dd0e      	ble.n	8488 <my_strncmp+0x24>
    846a:	7804      	ldrb	r4, [r0, #0]
    846c:	780b      	ldrb	r3, [r1, #0]
    846e:	429c      	cmp	r4, r3
    8470:	d30c      	bcc.n	848c <my_strncmp+0x28>
    8472:	d80e      	bhi.n	8492 <my_strncmp+0x2e>
    8474:	2300      	movs	r3, #0
    8476:	e004      	b.n	8482 <my_strncmp+0x1e>
    8478:	5cc5      	ldrb	r5, [r0, r3]
    847a:	5ccc      	ldrb	r4, [r1, r3]
    847c:	42a5      	cmp	r5, r4
    847e:	d305      	bcc.n	848c <my_strncmp+0x28>
    8480:	d807      	bhi.n	8492 <my_strncmp+0x2e>
    8482:	3301      	adds	r3, #1
    8484:	4293      	cmp	r3, r2
    8486:	d1f7      	bne.n	8478 <my_strncmp+0x14>
    8488:	2000      	movs	r0, #0
    848a:	bd30      	pop	{r4, r5, pc}
    848c:	2001      	movs	r0, #1
    848e:	4240      	negs	r0, r0
    8490:	e7fb      	b.n	848a <my_strncmp+0x26>
    8492:	2001      	movs	r0, #1
    8494:	e7f9      	b.n	848a <my_strncmp+0x26>
    8496:	46c0      	nop			; (mov r8, r8)

00008498 <my_strcpy>:
    8498:	780a      	ldrb	r2, [r1, #0]
    849a:	2300      	movs	r3, #0
    849c:	b500      	push	{lr}
    849e:	54c2      	strb	r2, [r0, r3]
    84a0:	3301      	adds	r3, #1
    84a2:	5cca      	ldrb	r2, [r1, r3]
    84a4:	2a00      	cmp	r2, #0
    84a6:	d1fa      	bne.n	849e <my_strcpy+0x6>
    84a8:	bd00      	pop	{pc}
    84aa:	46c0      	nop			; (mov r8, r8)

000084ac <CheckConstraint>:
    84ac:	b5f0      	push	{r4, r5, r6, r7, lr}
    84ae:	464f      	mov	r7, r9
    84b0:	4646      	mov	r6, r8
    84b2:	4c2a      	ldr	r4, [pc, #168]	; (855c <CheckConstraint+0xb0>)
    84b4:	b4c0      	push	{r6, r7}
    84b6:	44a5      	add	sp, r4
    84b8:	aa2a      	add	r2, sp, #168	; 0xa8
    84ba:	4680      	mov	r8, r0
    84bc:	1c07      	adds	r7, r0, #0
    84be:	4694      	mov	ip, r2
    84c0:	3014      	adds	r0, #20
    84c2:	1c15      	adds	r5, r2, #0
    84c4:	23d2      	movs	r3, #210	; 0xd2
    84c6:	005b      	lsls	r3, r3, #1
    84c8:	18fe      	adds	r6, r7, r3
    84ca:	1c2a      	adds	r2, r5, #0
    84cc:	1c3b      	adds	r3, r7, #0
    84ce:	781c      	ldrb	r4, [r3, #0]
    84d0:	3315      	adds	r3, #21
    84d2:	7014      	strb	r4, [r2, #0]
    84d4:	3201      	adds	r2, #1
    84d6:	42b3      	cmp	r3, r6
    84d8:	d1f9      	bne.n	84ce <CheckConstraint+0x22>
    84da:	3701      	adds	r7, #1
    84dc:	3514      	adds	r5, #20
    84de:	4287      	cmp	r7, r0
    84e0:	d1f0      	bne.n	84c4 <CheckConstraint+0x18>
    84e2:	23e6      	movs	r3, #230	; 0xe6
    84e4:	009b      	lsls	r3, r3, #2
    84e6:	1c1a      	adds	r2, r3, #0
    84e8:	4442      	add	r2, r8
    84ea:	ab02      	add	r3, sp, #8
    84ec:	ca01      	ldmia	r2!, {r0}
    84ee:	c301      	stmia	r3!, {r0}
    84f0:	459c      	cmp	ip, r3
    84f2:	d1fb      	bne.n	84ec <CheckConstraint+0x40>
    84f4:	23c8      	movs	r3, #200	; 0xc8
    84f6:	005b      	lsls	r3, r3, #1
    84f8:	4a19      	ldr	r2, [pc, #100]	; (8560 <CheckConstraint+0xb4>)
    84fa:	4698      	mov	r8, r3
    84fc:	2300      	movs	r3, #0
    84fe:	44e0      	add	r8, ip
    8500:	4665      	mov	r5, ip
    8502:	4691      	mov	r9, r2
    8504:	469c      	mov	ip, r3
    8506:	464c      	mov	r4, r9
    8508:	2600      	movs	r6, #0
    850a:	00b7      	lsls	r7, r6, #2
    850c:	aa02      	add	r2, sp, #8
    850e:	59d2      	ldr	r2, [r2, r7]
    8510:	2a00      	cmp	r2, #0
    8512:	d01c      	beq.n	854e <CheckConstraint+0xa2>
    8514:	2900      	cmp	r1, #0
    8516:	db0c      	blt.n	8532 <CheckConstraint+0x86>
    8518:	7822      	ldrb	r2, [r4, #0]
    851a:	782b      	ldrb	r3, [r5, #0]
    851c:	429a      	cmp	r2, r3
    851e:	d116      	bne.n	854e <CheckConstraint+0xa2>
    8520:	2300      	movs	r3, #0
    8522:	e003      	b.n	852c <CheckConstraint+0x80>
    8524:	5ce0      	ldrb	r0, [r4, r3]
    8526:	5cea      	ldrb	r2, [r5, r3]
    8528:	4290      	cmp	r0, r2
    852a:	d110      	bne.n	854e <CheckConstraint+0xa2>
    852c:	3301      	adds	r3, #1
    852e:	4299      	cmp	r1, r3
    8530:	daf8      	bge.n	8524 <CheckConstraint+0x78>
    8532:	aa02      	add	r2, sp, #8
    8534:	4663      	mov	r3, ip
    8536:	3514      	adds	r5, #20
    8538:	51d3      	str	r3, [r2, r7]
    853a:	4545      	cmp	r5, r8
    853c:	d1e3      	bne.n	8506 <CheckConstraint+0x5a>
    853e:	2001      	movs	r0, #1
    8540:	238f      	movs	r3, #143	; 0x8f
    8542:	009b      	lsls	r3, r3, #2
    8544:	449d      	add	sp, r3
    8546:	bc0c      	pop	{r2, r3}
    8548:	4690      	mov	r8, r2
    854a:	4699      	mov	r9, r3
    854c:	bdf0      	pop	{r4, r5, r6, r7, pc}
    854e:	3601      	adds	r6, #1
    8550:	3415      	adds	r4, #21
    8552:	2e28      	cmp	r6, #40	; 0x28
    8554:	d1d9      	bne.n	850a <CheckConstraint+0x5e>
    8556:	2000      	movs	r0, #0
    8558:	e7f2      	b.n	8540 <CheckConstraint+0x94>
    855a:	46c0      	nop			; (mov r8, r8)
    855c:	fffffdc4 			; <UNDEFINED> instruction: 0xfffffdc4
    8560:	000107ac 	andeq	r0, r1, ip, lsr #15

00008564 <SolveGame>:
    8564:	b5f0      	push	{r4, r5, r6, r7, lr}
    8566:	4657      	mov	r7, sl
    8568:	4645      	mov	r5, r8
    856a:	464e      	mov	r6, r9
    856c:	4c27      	ldr	r4, [pc, #156]	; (860c <SolveGame+0xa8>)
    856e:	b4e0      	push	{r5, r6, r7}
    8570:	4680      	mov	r8, r0
    8572:	44a5      	add	sp, r4
    8574:	1e0f      	subs	r7, r1, #0
    8576:	2f14      	cmp	r7, #20
    8578:	d03c      	beq.n	85f4 <SolveGame+0x90>
    857a:	22e6      	movs	r2, #230	; 0xe6
    857c:	004b      	lsls	r3, r1, #1
    857e:	185b      	adds	r3, r3, r1
    8580:	0092      	lsls	r2, r2, #2
    8582:	1c16      	adds	r6, r2, #0
    8584:	4699      	mov	r9, r3
    8586:	00db      	lsls	r3, r3, #3
    8588:	4446      	add	r6, r8
    858a:	4c21      	ldr	r4, [pc, #132]	; (8610 <SolveGame+0xac>)
    858c:	2500      	movs	r5, #0
    858e:	469a      	mov	sl, r3
    8590:	e004      	b.n	859c <SolveGame+0x38>
    8592:	3501      	adds	r5, #1
    8594:	3604      	adds	r6, #4
    8596:	3415      	adds	r4, #21
    8598:	2d28      	cmp	r5, #40	; 0x28
    859a:	d02d      	beq.n	85f8 <SolveGame+0x94>
    859c:	6833      	ldr	r3, [r6, #0]
    859e:	2b00      	cmp	r3, #0
    85a0:	d0f7      	beq.n	8592 <SolveGame+0x2e>
    85a2:	4669      	mov	r1, sp
    85a4:	4640      	mov	r0, r8
    85a6:	f7ff ff39 	bl	841c <initGame>
    85aa:	1c3b      	adds	r3, r7, #0
    85ac:	33d2      	adds	r3, #210	; 0xd2
    85ae:	009b      	lsls	r3, r3, #2
    85b0:	466a      	mov	r2, sp
    85b2:	50d5      	str	r5, [r2, r3]
    85b4:	aa00      	add	r2, sp, #0
    85b6:	00ab      	lsls	r3, r5, #2
    85b8:	18d3      	adds	r3, r2, r3
    85ba:	22e6      	movs	r2, #230	; 0xe6
    85bc:	0092      	lsls	r2, r2, #2
    85be:	189b      	adds	r3, r3, r2
    85c0:	2200      	movs	r2, #0
    85c2:	601a      	str	r2, [r3, #0]
    85c4:	4653      	mov	r3, sl
    85c6:	464a      	mov	r2, r9
    85c8:	1a99      	subs	r1, r3, r2
    85ca:	7822      	ldrb	r2, [r4, #0]
    85cc:	ab00      	add	r3, sp, #0
    85ce:	1859      	adds	r1, r3, r1
    85d0:	2300      	movs	r3, #0
    85d2:	54ca      	strb	r2, [r1, r3]
    85d4:	3301      	adds	r3, #1
    85d6:	5ce2      	ldrb	r2, [r4, r3]
    85d8:	2a00      	cmp	r2, #0
    85da:	d1fa      	bne.n	85d2 <SolveGame+0x6e>
    85dc:	4668      	mov	r0, sp
    85de:	1c39      	adds	r1, r7, #0
    85e0:	f7ff ff64 	bl	84ac <CheckConstraint>
    85e4:	2800      	cmp	r0, #0
    85e6:	d0d4      	beq.n	8592 <SolveGame+0x2e>
    85e8:	1c79      	adds	r1, r7, #1
    85ea:	4668      	mov	r0, sp
    85ec:	f7ff ffba 	bl	8564 <SolveGame>
    85f0:	2800      	cmp	r0, #0
    85f2:	d0ce      	beq.n	8592 <SolveGame+0x2e>
    85f4:	2001      	movs	r0, #1
    85f6:	e000      	b.n	85fa <SolveGame+0x96>
    85f8:	2000      	movs	r0, #0
    85fa:	2387      	movs	r3, #135	; 0x87
    85fc:	00db      	lsls	r3, r3, #3
    85fe:	449d      	add	sp, r3
    8600:	bc1c      	pop	{r2, r3, r4}
    8602:	4690      	mov	r8, r2
    8604:	4699      	mov	r9, r3
    8606:	46a2      	mov	sl, r4
    8608:	bdf0      	pop	{r4, r5, r6, r7, pc}
    860a:	46c0      	nop			; (mov r8, r8)
    860c:	fffffbc8 			; <UNDEFINED> instruction: 0xfffffbc8
    8610:	000107ac 	andeq	r0, r1, ip, lsr #15

00008614 <__libc_csu_init>:
    8614:	e92d43f8 	push	{r3, r4, r5, r6, r7, r8, r9, lr}
    8618:	e1a07000 	mov	r7, r0
    861c:	e59f604c 	ldr	r6, [pc, #76]	; 8670 <__libc_csu_init+0x5c>
    8620:	e59f504c 	ldr	r5, [pc, #76]	; 8674 <__libc_csu_init+0x60>
    8624:	e08f6006 	add	r6, pc, r6
    8628:	e08f5005 	add	r5, pc, r5
    862c:	e0656006 	rsb	r6, r5, r6
    8630:	e1a08001 	mov	r8, r1
    8634:	e1a09002 	mov	r9, r2
    8638:	ebffff0f 	bl	827c <_init>
    863c:	e1b06146 	asrs	r6, r6, #2
    8640:	08bd83f8 	popeq	{r3, r4, r5, r6, r7, r8, r9, pc}
    8644:	e2455004 	sub	r5, r5, #4
    8648:	e3a04000 	mov	r4, #0
    864c:	e2844001 	add	r4, r4, #1
    8650:	e5b53004 	ldr	r3, [r5, #4]!
    8654:	e1a00007 	mov	r0, r7
    8658:	e1a01008 	mov	r1, r8
    865c:	e1a02009 	mov	r2, r9
    8660:	e12fff33 	blx	r3
    8664:	e1540006 	cmp	r4, r6
    8668:	1afffff7 	bne	864c <__libc_csu_init+0x38>
    866c:	e8bd83f8 	pop	{r3, r4, r5, r6, r7, r8, r9, pc}
    8670:	0000806c 	andeq	r8, r0, ip, rrx
    8674:	00008064 	andeq	r8, r0, r4, rrx

00008678 <__libc_csu_fini>:
    8678:	e12fff1e 	bx	lr

Disassembly of section .fini:

0000867c <_fini>:
    867c:	e92d4008 	push	{r3, lr}
    8680:	e8bd8008 	pop	{r3, pc}
